#include <math.h>
#include <stdio.h>
#include <stdlib.h>
#include <string.h>

int main(){
	int m;
	scanf("%d",&m);
	int i;
	for(i=0;i<m;i++)
	{
		int n;
		scanf("%d",&n);
		int a=2,b=1,k,e;
		double sum=0;
		for(k=1;k<=n;k++)
		{
			sum+=(double)a/b;
			e=a;
			a=a+b;
			b=e;
		}
		printf("%.3lf\n",sum);
	}
	return 0;
}