; ModuleID = '29/696.c'
source_filename = "29/696.c"
target datalayout = "e-m:e-p270:32:32-p271:32:32-p272:64:64-i64:64-f80:128-n8:16:32:64-S128"
target triple = "x86_64-pc-linux-gnu"

@.str = private unnamed_addr constant [3 x i8] c"%d\00", align 1
@.str.1 = private unnamed_addr constant [7 x i8] c"%.3lf\0A\00", align 1

; Function Attrs: noinline nounwind uwtable
define dso_local i32 @main() #0 {
  %1 = alloca i32, align 4
  %2 = alloca i32, align 4
  %3 = alloca i32, align 4
  %4 = alloca i32, align 4
  %5 = alloca i32, align 4
  %6 = alloca i32, align 4
  %7 = alloca i32, align 4
  %8 = alloca i32, align 4
  %9 = alloca double, align 8
  store i32 0, i32* %1, align 4
  %10 = call i32 (i8*, ...) @__isoc99_scanf(i8* getelementptr inbounds ([3 x i8], [3 x i8]* @.str, i64 0, i64 0), i32* %2)
  store i32 0, i32* %3, align 4
  br label %11

11:                                               ; preds = %40, %0
  %12 = load i32, i32* %3, align 4
  %13 = load i32, i32* %2, align 4
  %14 = icmp slt i32 %12, %13
  br i1 %14, label %15, label %43

15:                                               ; preds = %11
  %16 = call i32 (i8*, ...) @__isoc99_scanf(i8* getelementptr inbounds ([3 x i8], [3 x i8]* @.str, i64 0, i64 0), i32* %4)
  store i32 2, i32* %5, align 4
  store i32 1, i32* %6, align 4
  store double 0.000000e+00, double* %9, align 8
  store i32 1, i32* %7, align 4
  br label %17

17:                                               ; preds = %34, %15
  %18 = load i32, i32* %7, align 4
  %19 = load i32, i32* %4, align 4
  %20 = icmp sle i32 %18, %19
  br i1 %20, label %21, label %37

21:                                               ; preds = %17
  %22 = load i32, i32* %5, align 4
  %23 = sitofp i32 %22 to double
  %24 = load i32, i32* %6, align 4
  %25 = sitofp i32 %24 to double
  %26 = fdiv double %23, %25
  %27 = load double, double* %9, align 8
  %28 = fadd double %27, %26
  store double %28, double* %9, align 8
  %29 = load i32, i32* %5, align 4
  store i32 %29, i32* %8, align 4
  %30 = load i32, i32* %5, align 4
  %31 = load i32, i32* %6, align 4
  %32 = add nsw i32 %30, %31
  store i32 %32, i32* %5, align 4
  %33 = load i32, i32* %8, align 4
  store i32 %33, i32* %6, align 4
  br label %34

34:                                               ; preds = %21
  %35 = load i32, i32* %7, align 4
  %36 = add nsw i32 %35, 1
  store i32 %36, i32* %7, align 4
  br label %17

37:                                               ; preds = %17
  %38 = load double, double* %9, align 8
  %39 = call i32 (i8*, ...) @printf(i8* getelementptr inbounds ([7 x i8], [7 x i8]* @.str.1, i64 0, i64 0), double %38)
  br label %40

40:                                               ; preds = %37
  %41 = load i32, i32* %3, align 4
  %42 = add nsw i32 %41, 1
  store i32 %42, i32* %3, align 4
  br label %11

43:                                               ; preds = %11
  ret i32 0
}

declare dso_local i32 @__isoc99_scanf(i8*, ...) #1

declare dso_local i32 @printf(i8*, ...) #1


!llvm.module.flags = !{!0}
!llvm.ident = !{!1}

!0 = !{i32 1, !"wchar_size", i32 4}
!1 = !{!"clang version 10.0.0-4ubuntu1 "}
